; Function Attrs: mustprogress nounwind uwtable
define dso_local void @_ZN13AliasResourceD0Ev(ptr noundef nonnull align 8 dereferenceable(120) initializes((0, 8)) %0) unnamed_addr #3 align 2 personality ptr @__gxx_personality_v0 {
  store ptr getelementptr inbounds nuw inrange(-16, 64) (i8, ptr @_ZTV18StringBaseResource, i64 16), ptr %0, align 8, !tbaa !9
  %2 = getelementptr inbounds nuw i8, ptr %0, i64 56
  tail call void @_ZN6icu_7713UnicodeStringD1Ev(ptr noundef nonnull align 8 dereferenceable(64) %2) #34
  store ptr getelementptr inbounds nuw inrange(-16, 64) (i8, ptr @_ZTV9SResource, i64 16), ptr %0, align 8, !tbaa !9
  %3 = getelementptr inbounds nuw i8, ptr %0, i64 40
  invoke void @ustr_deinit(ptr noundef nonnull %3)
          to label %_ZN18StringBaseResourceD2Ev.exit unwind label %4

4:                                                ; preds = %1
  %5 = landingpad { ptr, i32 }
          catch ptr null
  %6 = extractvalue { ptr, i32 } %5, 0
  tail call void @__clang_call_terminate(ptr %6) #31
  unreachable

_ZN18StringBaseResourceD2Ev.exit:                 ; preds = %1
  tail call void @_ZdlPvm(ptr noundef nonnull %0, i64 noundef 120) #35
  ret void
}